; Function Attrs: mustprogress nounwind uwtable
define internal fastcc void @_ZNSt17_Temporary_bufferIN9__gnu_cxx17__normal_iteratorIPN12_GLOBAL__N_13JBTINSt7__cxx1112basic_stringIcSt11char_traitsIcESaIcEEEEESt6vectorISA_SaISA_EEEESA_ED2Ev(ptr noundef nonnull readonly align 8 captures(none) dereferenceable(24) %0) unnamed_addr #4 align 2 personality ptr @__gxx_personality_v0 {
  %2 = getelementptr inbounds nuw i8, ptr %0, i64 16
  %3 = load ptr, ptr %2, align 8, !tbaa !899
  %4 = getelementptr inbounds nuw i8, ptr %0, i64 8
  %5 = load i64, ptr %4, align 8, !tbaa !900
  %6 = getelementptr inbounds %"class.(anonymous namespace)::JBT", ptr %3, i64 %5
  %.not4.i.i = icmp eq i64 %5, 0
  br i1 %.not4.i.i, label %_ZSt8_DestroyIPN12_GLOBAL__N_13JBTINSt7__cxx1112basic_stringIcSt11char_traitsIcESaIcEEEEEEvT_SA_.exit, label %.lr.ph.i.i

.lr.ph.i.i:                                       ; preds = %1, %_ZSt8_DestroyIN12_GLOBAL__N_13JBTINSt7__cxx1112basic_stringIcSt11char_traitsIcESaIcEEEEEEvPT_.exit.i.i
  %.05.i.i = phi ptr [ %15, %_ZSt8_DestroyIN12_GLOBAL__N_13JBTINSt7__cxx1112basic_stringIcSt11char_traitsIcESaIcEEEEEEvPT_.exit.i.i ], [ %3, %1 ]
  %7 = load ptr, ptr %.05.i.i, align 8, !tbaa !79
  %8 = getelementptr inbounds nuw i8, ptr %.05.i.i, i64 16
  %9 = icmp eq ptr %7, %8
  br i1 %9, label %_ZNKSt7__cxx1112basic_stringIcSt11char_traitsIcESaIcEE11_M_is_localEv.exit.thread.i.i.i.i.i.i, label %_ZNKSt7__cxx1112basic_stringIcSt11char_traitsIcESaIcEE11_M_is_localEv.exit.i.i.i.i.i.i

_ZNKSt7__cxx1112basic_stringIcSt11char_traitsIcESaIcEE11_M_is_localEv.exit.thread.i.i.i.i.i.i: ; preds = %.lr.ph.i.i
  %10 = getelementptr inbounds nuw i8, ptr %.05.i.i, i64 8
  %11 = load i64, ptr %10, align 8, !tbaa !80
  %12 = icmp ult i64 %11, 16
  tail call void @llvm.assume(i1 %12)
  br label %_ZSt8_DestroyIN12_GLOBAL__N_13JBTINSt7__cxx1112basic_stringIcSt11char_traitsIcESaIcEEEEEEvPT_.exit.i.i

_ZNKSt7__cxx1112basic_stringIcSt11char_traitsIcESaIcEE11_M_is_localEv.exit.i.i.i.i.i.i: ; preds = %.lr.ph.i.i
  %13 = load i64, ptr %8, align 8, !tbaa !81
  %14 = add i64 %13, 1
  tail call void @_ZdlPvm(ptr noundef %7, i64 noundef %14) #29
  br label %_ZSt8_DestroyIN12_GLOBAL__N_13JBTINSt7__cxx1112basic_stringIcSt11char_traitsIcESaIcEEEEEEvPT_.exit.i.i

_ZSt8_DestroyIN12_GLOBAL__N_13JBTINSt7__cxx1112basic_stringIcSt11char_traitsIcESaIcEEEEEEvPT_.exit.i.i: ; preds = %_ZNKSt7__cxx1112basic_stringIcSt11char_traitsIcESaIcEE11_M_is_localEv.exit.i.i.i.i.i.i, %_ZNKSt7__cxx1112basic_stringIcSt11char_traitsIcESaIcEE11_M_is_localEv.exit.thread.i.i.i.i.i.i
  %15 = getelementptr inbounds nuw i8, ptr %.05.i.i, i64 40
  %.not.i.i = icmp eq ptr %15, %6
  br i1 %.not.i.i, label %_ZSt8_DestroyIPN12_GLOBAL__N_13JBTINSt7__cxx1112basic_stringIcSt11char_traitsIcESaIcEEEEEEvT_SA_.exit.loopexit, label %.lr.ph.i.i, !llvm.loop !863

_ZSt8_DestroyIPN12_GLOBAL__N_13JBTINSt7__cxx1112basic_stringIcSt11char_traitsIcESaIcEEEEEEvT_SA_.exit.loopexit: ; preds = %_ZSt8_DestroyIN12_GLOBAL__N_13JBTINSt7__cxx1112basic_stringIcSt11char_traitsIcESaIcEEEEEEvPT_.exit.i.i
  %.pre = load ptr, ptr %2, align 8, !tbaa !899
  %.pre1 = load i64, ptr %4, align 8, !tbaa !900
  %16 = mul i64 %.pre1, 40
  br label %_ZSt8_DestroyIPN12_GLOBAL__N_13JBTINSt7__cxx1112basic_stringIcSt11char_traitsIcESaIcEEEEEEvT_SA_.exit

_ZSt8_DestroyIPN12_GLOBAL__N_13JBTINSt7__cxx1112basic_stringIcSt11char_traitsIcESaIcEEEEEEvT_SA_.exit: ; preds = %_ZSt8_DestroyIPN12_GLOBAL__N_13JBTINSt7__cxx1112basic_stringIcSt11char_traitsIcESaIcEEEEEEvT_SA_.exit.loopexit, %1
  %17 = phi i64 [ %16, %_ZSt8_DestroyIPN12_GLOBAL__N_13JBTINSt7__cxx1112basic_stringIcSt11char_traitsIcESaIcEEEEEEvT_SA_.exit.loopexit ], [ 0, %1 ]
  %18 = phi ptr [ %.pre, %_ZSt8_DestroyIPN12_GLOBAL__N_13JBTINSt7__cxx1112basic_stringIcSt11char_traitsIcESaIcEEEEEEvT_SA_.exit.loopexit ], [ %3, %1 ]
  tail call void @_ZdlPvm(ptr noundef %18, i64 noundef %17) #28
  ret void
}